; Function Attrs: nounwind uwtable
define dso_local void @_PyWeakref_ClearRef(ptr noundef %0) local_unnamed_addr #0 {
  %2 = getelementptr inbounds nuw i8, ptr %0, i64 16
  %3 = load ptr, ptr %2, align 8, !tbaa !37
  %.not.i = icmp eq ptr %3, @_Py_NoneStruct
  br i1 %.not.i, label %clear_weakref_lock_held.exit, label %4

4:                                                ; preds = %1
  %5 = getelementptr i8, ptr %3, i64 8
  %.val9.i.i = load ptr, ptr %5, align 8, !tbaa !4
  %6 = getelementptr i8, ptr %.val9.i.i, i64 168
  %.val9.val.i.i = load i64, ptr %6, align 8, !tbaa !21
  %7 = and i64 %.val9.val.i.i, 2147483648
  %.not10.i.i = icmp eq i64 %7, 0
  br i1 %.not10.i.i, label %19, label %8

8:                                                ; preds = %4
  %9 = getelementptr inbounds nuw i8, ptr %3, i64 168
  %10 = load i64, ptr %9, align 8, !tbaa !21
  %11 = and i64 %10, 2
  %.not8.i.i = icmp eq i64 %11, 0
  br i1 %.not8.i.i, label %19, label %12

12:                                               ; preds = %8
  %13 = tail call align 8 ptr @llvm.threadlocal.address.p0(ptr align 8 @_Py_tss_tstate)
  %14 = load ptr, ptr %13, align 8, !tbaa !22
  %15 = getelementptr inbounds nuw i8, ptr %14, i64 16
  %16 = load ptr, ptr %15, align 8, !tbaa !24
  %17 = tail call ptr @_PyStaticType_GetState(ptr noundef %16, ptr noundef nonnull %3) #6
  %18 = getelementptr inbounds nuw i8, ptr %17, i64 40
  br label %_PyObject_GET_WEAKREFS_LISTPTR.exit.i

19:                                               ; preds = %8, %4
  %20 = getelementptr inbounds nuw i8, ptr %.val9.i.i, i64 208
  %21 = load i64, ptr %20, align 8, !tbaa !10
  %22 = getelementptr i8, ptr %3, i64 %21
  br label %_PyObject_GET_WEAKREFS_LISTPTR.exit.i

_PyObject_GET_WEAKREFS_LISTPTR.exit.i:            ; preds = %19, %12
  %.0.i.i = phi ptr [ %18, %12 ], [ %22, %19 ]
  %23 = load ptr, ptr %.0.i.i, align 8, !tbaa !33
  %24 = icmp eq ptr %23, %0
  %25 = getelementptr inbounds nuw i8, ptr %0, i64 48
  %26 = load ptr, ptr %25, align 8, !tbaa !39
  br i1 %24, label %27, label %_PyObject_GET_WEAKREFS_LISTPTR.exit.i._crit_edge

27:                                               ; preds = %_PyObject_GET_WEAKREFS_LISTPTR.exit.i
  store ptr %26, ptr %.0.i.i, align 8, !tbaa !33
  br label %_PyObject_GET_WEAKREFS_LISTPTR.exit.i._crit_edge

_PyObject_GET_WEAKREFS_LISTPTR.exit.i._crit_edge: ; preds = %_PyObject_GET_WEAKREFS_LISTPTR.exit.i, %27
  store ptr @_Py_NoneStruct, ptr %2, align 8, !tbaa !37
  %28 = getelementptr inbounds nuw i8, ptr %0, i64 40
  %29 = load ptr, ptr %28, align 8, !tbaa !40
  %.not23.i = icmp eq ptr %29, null
  br i1 %.not23.i, label %._crit_edge.i, label %30

30:                                               ; preds = %_PyObject_GET_WEAKREFS_LISTPTR.exit.i._crit_edge
  %31 = getelementptr inbounds nuw i8, ptr %29, i64 48
  store ptr %26, ptr %31, align 8, !tbaa !39
  br label %._crit_edge.i

._crit_edge.i:                                    ; preds = %30, %_PyObject_GET_WEAKREFS_LISTPTR.exit.i._crit_edge
  %.not24.i = icmp eq ptr %26, null
  br i1 %.not24.i, label %34, label %32

32:                                               ; preds = %._crit_edge.i
  %33 = getelementptr inbounds nuw i8, ptr %26, i64 40
  store ptr %29, ptr %33, align 8, !tbaa !40
  br label %34

34:                                               ; preds = %32, %._crit_edge.i
  tail call void @llvm.memset.p0.i64(ptr noundef nonnull align 8 dereferenceable(16) %28, i8 0, i64 16, i1 false)
  br label %clear_weakref_lock_held.exit

clear_weakref_lock_held.exit:                     ; preds = %1, %34
  ret void
}